target datalayout = "e-m:e-p270:32:32-p271:32:32-p272:64:64-i64:64-i128:128-f80:128-n8:16:32:64-S128"
target triple = "x86_64-pc-linux-gnu"

%struct.rhash_context_ext = type { %struct.rhash_context, i32, i32, i32, ptr, ptr, ptr, [0 x %struct.rhash_vector_item] }
%struct.rhash_context = type { i64, i32 }
%struct.rhash_vector_item = type { ptr, ptr }
%struct.rhash_hash_info = type { ptr, i64, i64, ptr, ptr, ptr, ptr }

@.str = private unnamed_addr constant [3 x i8] c"rb\00", align 1

; Function Attrs: nounwind uwtable
define dso_local void @rhash_free(ptr noundef %0) #0 {
  %2 = alloca ptr, align 8
  %3 = alloca ptr, align 8
  %4 = alloca i32, align 4
  %5 = alloca i32, align 4
  %6 = alloca ptr, align 8
  store ptr %0, ptr %2, align 8, !tbaa !33
  call void @llvm.lifetime.start.p0(i64 8, ptr %3) #8
  %7 = load ptr, ptr %2, align 8, !tbaa !33
  store ptr %7, ptr %3, align 8, !tbaa !13
  call void @llvm.lifetime.start.p0(i64 4, ptr %4) #8
  %8 = load ptr, ptr %2, align 8, !tbaa !33
  %9 = icmp eq ptr %8, null
  br i1 %9, label %10, label %11

10:                                               ; preds = %1
  store i32 1, ptr %5, align 4
  br label %49

11:                                               ; preds = %1
  %12 = load ptr, ptr %3, align 8, !tbaa !13
  %13 = getelementptr inbounds nuw %struct.rhash_context_ext, ptr %12, i32 0, i32 3
  store volatile i32 -556882451, ptr %13, align 8, !tbaa !4
  store i32 0, ptr %4, align 4, !tbaa !4
  br label %14

14:                                               ; preds = %44, %11
  %15 = load i32, ptr %4, align 4, !tbaa !4
  %16 = load ptr, ptr %3, align 8, !tbaa !13
  %17 = getelementptr inbounds nuw %struct.rhash_context_ext, ptr %16, i32 0, i32 1
  %18 = load i32, ptr %17, align 8, !tbaa !4
  %19 = icmp ult i32 %15, %18
  br i1 %19, label %20, label %47

20:                                               ; preds = %14
  call void @llvm.lifetime.start.p0(i64 8, ptr %6) #8
  %21 = load ptr, ptr %3, align 8, !tbaa !13
  %22 = getelementptr inbounds nuw %struct.rhash_context_ext, ptr %21, i32 0, i32 7
  %23 = load i32, ptr %4, align 4, !tbaa !4
  %24 = zext i32 %23 to i64
  %25 = getelementptr inbounds nuw [0 x %struct.rhash_vector_item], ptr %22, i64 0, i64 %24
  %26 = getelementptr inbounds nuw %struct.rhash_vector_item, ptr %25, i32 0, i32 0
  %27 = load ptr, ptr %26, align 8, !tbaa !27
  store ptr %27, ptr %6, align 8, !tbaa !15
  %28 = load ptr, ptr %6, align 8, !tbaa !15
  %29 = getelementptr inbounds nuw %struct.rhash_hash_info, ptr %28, i32 0, i32 6
  %30 = load ptr, ptr %29, align 8, !tbaa !35
  %31 = icmp ne ptr %30, null
  br i1 %31, label %32, label %43

32:                                               ; preds = %20
  %33 = load ptr, ptr %6, align 8, !tbaa !15
  %34 = getelementptr inbounds nuw %struct.rhash_hash_info, ptr %33, i32 0, i32 6
  %35 = load ptr, ptr %34, align 8, !tbaa !35
  %36 = load ptr, ptr %3, align 8, !tbaa !13
  %37 = getelementptr inbounds nuw %struct.rhash_context_ext, ptr %36, i32 0, i32 7
  %38 = load i32, ptr %4, align 4, !tbaa !4
  %39 = zext i32 %38 to i64
  %40 = getelementptr inbounds nuw [0 x %struct.rhash_vector_item], ptr %37, i64 0, i64 %39
  %41 = getelementptr inbounds nuw %struct.rhash_vector_item, ptr %40, i32 0, i32 1
  %42 = load ptr, ptr %41, align 8, !tbaa !29
  call void %35(ptr noundef %42)
  br label %43

43:                                               ; preds = %32, %20
  call void @llvm.lifetime.end.p0(i64 8, ptr %6) #8
  br label %44

44:                                               ; preds = %43
  %45 = load i32, ptr %4, align 4, !tbaa !4
  %46 = add i32 %45, 1
  store i32 %46, ptr %4, align 4, !tbaa !4
  br label %14, !llvm.loop !36

47:                                               ; preds = %14
  %48 = load ptr, ptr %3, align 8, !tbaa !13
  call void @free(ptr noundef %48) #8
  store i32 0, ptr %5, align 4
  br label %49

49:                                               ; preds = %47, %10
  call void @llvm.lifetime.end.p0(i64 4, ptr %4) #8
  call void @llvm.lifetime.end.p0(i64 8, ptr %3) #8
  %50 = load i32, ptr %5, align 4
  switch i32 %50, label %52 [
    i32 0, label %51
    i32 1, label %51
  ]

51:                                               ; preds = %49, %49
  ret void

52:                                               ; preds = %49
  unreachable
}

; Function Attrs: nounwind uwtable
define dso_local i32 @rhash_final(ptr noundef %0, ptr noundef %1) #0 {
  %3 = alloca i32, align 4
  %4 = alloca ptr, align 8
  %5 = alloca ptr, align 8
  %6 = alloca i32, align 4
  %7 = alloca [130 x i8], align 16
  %8 = alloca ptr, align 8
  %9 = alloca ptr, align 8
  %10 = alloca i32, align 4
  %11 = alloca ptr, align 8
  store ptr %0, ptr %4, align 8, !tbaa !33
  store ptr %1, ptr %5, align 8, !tbaa !25
  call void @llvm.lifetime.start.p0(i64 4, ptr %6) #8
  store i32 0, ptr %6, align 4, !tbaa !4
  call void @llvm.lifetime.start.p0(i64 130, ptr %7) #8
  call void @llvm.lifetime.start.p0(i64 8, ptr %8) #8
  %12 = load ptr, ptr %5, align 8, !tbaa !25
  %13 = icmp ne ptr %12, null
  br i1 %13, label %14, label %16

14:                                               ; preds = %2
  %15 = load ptr, ptr %5, align 8, !tbaa !25
  br label %18

16:                                               ; preds = %2
  %17 = getelementptr inbounds [130 x i8], ptr %7, i64 0, i64 0
  br label %18

18:                                               ; preds = %16, %14
  %19 = phi ptr [ %15, %14 ], [ %17, %16 ]
  store ptr %19, ptr %8, align 8, !tbaa !25
  call void @llvm.lifetime.start.p0(i64 8, ptr %9) #8
  %20 = load ptr, ptr %4, align 8, !tbaa !33
  store ptr %20, ptr %9, align 8, !tbaa !13
  %21 = load ptr, ptr %9, align 8, !tbaa !13
  %22 = getelementptr inbounds nuw %struct.rhash_context_ext, ptr %21, i32 0, i32 2
  %23 = load i32, ptr %22, align 4, !tbaa !4
  %24 = and i32 %23, 3
  %25 = icmp eq i32 %24, 3
  br i1 %25, label %26, label %27

26:                                               ; preds = %18
  store i32 0, ptr %3, align 4
  store i32 1, ptr %10, align 4
  br label %62

27:                                               ; preds = %18
  store i32 0, ptr %6, align 4, !tbaa !4
  br label %28

28:                                               ; preds = %54, %27
  %29 = load i32, ptr %6, align 4, !tbaa !4
  %30 = load ptr, ptr %9, align 8, !tbaa !13
  %31 = getelementptr inbounds nuw %struct.rhash_context_ext, ptr %30, i32 0, i32 1
  %32 = load i32, ptr %31, align 8, !tbaa !4
  %33 = icmp ult i32 %29, %32
  br i1 %33, label %34, label %57

34:                                               ; preds = %28
  call void @llvm.lifetime.start.p0(i64 8, ptr %11) #8
  %35 = load ptr, ptr %9, align 8, !tbaa !13
  %36 = getelementptr inbounds nuw %struct.rhash_context_ext, ptr %35, i32 0, i32 7
  %37 = load i32, ptr %6, align 4, !tbaa !4
  %38 = zext i32 %37 to i64
  %39 = getelementptr inbounds nuw [0 x %struct.rhash_vector_item], ptr %36, i64 0, i64 %38
  %40 = getelementptr inbounds nuw %struct.rhash_vector_item, ptr %39, i32 0, i32 0
  %41 = load ptr, ptr %40, align 8, !tbaa !27
  store ptr %41, ptr %11, align 8, !tbaa !15
  %42 = load ptr, ptr %11, align 8, !tbaa !15
  %43 = getelementptr inbounds nuw %struct.rhash_hash_info, ptr %42, i32 0, i32 5
  %44 = load ptr, ptr %43, align 8, !tbaa !42
  %45 = load ptr, ptr %9, align 8, !tbaa !13
  %46 = getelementptr inbounds nuw %struct.rhash_context_ext, ptr %45, i32 0, i32 7
  %47 = load i32, ptr %6, align 4, !tbaa !4
  %48 = zext i32 %47 to i64
  %49 = getelementptr inbounds nuw [0 x %struct.rhash_vector_item], ptr %46, i64 0, i64 %48
  %50 = getelementptr inbounds nuw %struct.rhash_vector_item, ptr %49, i32 0, i32 1
  %51 = load ptr, ptr %50, align 8, !tbaa !29
  %52 = load ptr, ptr %8, align 8, !tbaa !25
  call void %44(ptr noundef %51, ptr noundef %52)
  %53 = getelementptr inbounds [130 x i8], ptr %7, i64 0, i64 0
  store ptr %53, ptr %8, align 8, !tbaa !25
  call void @llvm.lifetime.end.p0(i64 8, ptr %11) #8
  br label %54

54:                                               ; preds = %34
  %55 = load i32, ptr %6, align 4, !tbaa !4
  %56 = add i32 %55, 1
  store i32 %56, ptr %6, align 4, !tbaa !4
  br label %28, !llvm.loop !43

57:                                               ; preds = %28
  %58 = load ptr, ptr %9, align 8, !tbaa !13
  %59 = getelementptr inbounds nuw %struct.rhash_context_ext, ptr %58, i32 0, i32 2
  %60 = load i32, ptr %59, align 4, !tbaa !4
  %61 = or i32 %60, 2
  store i32 %61, ptr %59, align 4, !tbaa !4
  store i32 0, ptr %3, align 4
  store i32 1, ptr %10, align 4
  br label %62

62:                                               ; preds = %57, %26
  call void @llvm.lifetime.end.p0(i64 8, ptr %9) #8
  call void @llvm.lifetime.end.p0(i64 8, ptr %8) #8
  call void @llvm.lifetime.end.p0(i64 130, ptr %7) #8
  call void @llvm.lifetime.end.p0(i64 4, ptr %6) #8
  %63 = load i32, ptr %3, align 4
  ret i32 %63
}

; Function Attrs: nounwind uwtable
define dso_local ptr @rhash_init(i32 noundef %0) #0 {
  %2 = alloca ptr, align 8
  %3 = alloca i32, align 4
  %4 = alloca i64, align 8
  %5 = alloca [32 x i32], align 16
  %6 = alloca i32, align 4
  store i32 %0, ptr %3, align 4, !tbaa !4
  %7 = load i32, ptr %3, align 4, !tbaa !4
  %8 = icmp ne i32 %7, 0
  br i1 %8, label %9, label %13

9:                                                ; preds = %1
  %10 = load i32, ptr %3, align 4, !tbaa !4
  %11 = and i32 %10, -1024
  %12 = icmp eq i32 %11, 0
  br i1 %12, label %15, label %13

13:                                               ; preds = %9, %1
  %14 = call ptr @__errno_location() #9
  store i32 22, ptr %14, align 4, !tbaa !4
  store ptr null, ptr %2, align 8
  br label %50

15:                                               ; preds = %9
  %16 = load i32, ptr %3, align 4, !tbaa !4
  %17 = load i32, ptr %3, align 4, !tbaa !4
  %18 = sub i32 %17, 1
  %19 = and i32 %16, %18
  %20 = icmp eq i32 %19, 0
  br i1 %20, label %21, label %23

21:                                               ; preds = %15
  %22 = call ptr @rhash_init_multi(i64 noundef 1, ptr noundef %3)
  store ptr %22, ptr %2, align 8
  br label %50

23:                                               ; preds = %15
  call void @llvm.lifetime.start.p0(i64 8, ptr %4) #8
  call void @llvm.lifetime.start.p0(i64 128, ptr %5) #8
  call void @llvm.lifetime.start.p0(i64 4, ptr %6) #8
  %24 = load i32, ptr %3, align 4, !tbaa !4
  %25 = load i32, ptr %3, align 4, !tbaa !4
  %26 = sub i32 0, %25
  %27 = and i32 %24, %26
  store i32 %27, ptr %6, align 4, !tbaa !4
  store i64 0, ptr %4, align 8, !tbaa !8
  br label %28

28:                                               ; preds = %43, %23
  %29 = load i32, ptr %6, align 4, !tbaa !4
  %30 = load i32, ptr %3, align 4, !tbaa !4
  %31 = icmp ule i32 %29, %30
  br i1 %31, label %32, label %46

32:                                               ; preds = %28
  %33 = load i32, ptr %3, align 4, !tbaa !4
  %34 = load i32, ptr %6, align 4, !tbaa !4
  %35 = and i32 %33, %34
  %36 = icmp ne i32 %35, 0
  br i1 %36, label %37, label %42

37:                                               ; preds = %32
  %38 = load i32, ptr %6, align 4, !tbaa !4
  %39 = load i64, ptr %4, align 8, !tbaa !8
  %40 = add i64 %39, 1
  store i64 %40, ptr %4, align 8, !tbaa !8
  %41 = getelementptr inbounds nuw [32 x i32], ptr %5, i64 0, i64 %39
  store i32 %38, ptr %41, align 4, !tbaa !4
  br label %42

42:                                               ; preds = %37, %32
  br label %43

43:                                               ; preds = %42
  %44 = load i32, ptr %6, align 4, !tbaa !4
  %45 = shl i32 %44, 1
  store i32 %45, ptr %6, align 4, !tbaa !4
  br label %28, !llvm.loop !32

46:                                               ; preds = %28
  %47 = load i64, ptr %4, align 8, !tbaa !8
  %48 = getelementptr inbounds [32 x i32], ptr %5, i64 0, i64 0
  %49 = call ptr @rhash_init_multi(i64 noundef %47, ptr noundef %48)
  store ptr %49, ptr %2, align 8
  call void @llvm.lifetime.end.p0(i64 4, ptr %6) #8
  call void @llvm.lifetime.end.p0(i64 128, ptr %5) #8
  call void @llvm.lifetime.end.p0(i64 8, ptr %4) #8
  br label %50

50:                                               ; preds = %46, %21, %13
  %51 = load ptr, ptr %2, align 8
  ret ptr %51
}

; Function Attrs: nounwind uwtable
define dso_local i32 @rhash_file(i32 noundef %0, ptr noundef %1, ptr noundef %2) #0 {
  %4 = alloca i32, align 4
  %5 = alloca i32, align 4
  %6 = alloca ptr, align 8
  %7 = alloca ptr, align 8
  %8 = alloca ptr, align 8
  %9 = alloca ptr, align 8
  %10 = alloca i32, align 4
  %11 = alloca i32, align 4
  store i32 %0, ptr %5, align 4, !tbaa !4
  store ptr %1, ptr %6, align 8, !tbaa !25
  store ptr %2, ptr %7, align 8, !tbaa !25
  call void @llvm.lifetime.start.p0(i64 8, ptr %8) #8
  call void @llvm.lifetime.start.p0(i64 8, ptr %9) #8
  call void @llvm.lifetime.start.p0(i64 4, ptr %10) #8
  %12 = load i32, ptr %5, align 4, !tbaa !4
  %13 = and i32 %12, 1023
  store i32 %13, ptr %5, align 4, !tbaa !4
  %14 = load i32, ptr %5, align 4, !tbaa !4
  %15 = icmp eq i32 %14, 0
  br i1 %15, label %16, label %18

16:                                               ; preds = %3
  %17 = call ptr @__errno_location() #9
  store i32 22, ptr %17, align 4, !tbaa !4
  store i32 -1, ptr %4, align 4
  store i32 1, ptr %11, align 4
  br label %47

18:                                               ; preds = %3
  %19 = load ptr, ptr %6, align 8, !tbaa !25
  %20 = call noalias ptr @fopen64(ptr noundef %19, ptr noundef @.str)
  store ptr %20, ptr %8, align 8, !tbaa !44
  %21 = load ptr, ptr %8, align 8, !tbaa !44
  %22 = icmp ne ptr %21, null
  br i1 %22, label %24, label %23

23:                                               ; preds = %18
  store i32 -1, ptr %4, align 4
  store i32 1, ptr %11, align 4
  br label %47

24:                                               ; preds = %18
  %25 = load i32, ptr %5, align 4, !tbaa !4
  %26 = call ptr @rhash_init(i32 noundef %25)
  store ptr %26, ptr %9, align 8, !tbaa !33
  %27 = load ptr, ptr %9, align 8, !tbaa !33
  %28 = icmp ne ptr %27, null
  br i1 %28, label %32, label %29

29:                                               ; preds = %24
  %30 = load ptr, ptr %8, align 8, !tbaa !44
  %31 = call i32 @fclose(ptr noundef %30)
  store i32 -1, ptr %4, align 4
  store i32 1, ptr %11, align 4
  br label %47

32:                                               ; preds = %24
  %33 = load ptr, ptr %9, align 8, !tbaa !33
  %34 = load ptr, ptr %8, align 8, !tbaa !44
  %35 = call i32 @rhash_file_update(ptr noundef %33, ptr noundef %34)
  store i32 %35, ptr %10, align 4, !tbaa !4
  %36 = load ptr, ptr %8, align 8, !tbaa !44
  %37 = call i32 @fclose(ptr noundef %36)
  %38 = load i32, ptr %10, align 4, !tbaa !4
  %39 = icmp sge i32 %38, 0
  br i1 %39, label %40, label %44

40:                                               ; preds = %32
  %41 = load ptr, ptr %9, align 8, !tbaa !33
  %42 = load ptr, ptr %7, align 8, !tbaa !25
  %43 = call i32 @rhash_final(ptr noundef %41, ptr noundef %42)
  br label %44

44:                                               ; preds = %40, %32
  %45 = load ptr, ptr %9, align 8, !tbaa !33
  call void @rhash_free(ptr noundef %45)
  %46 = load i32, ptr %10, align 4, !tbaa !4
  store i32 %46, ptr %4, align 4
  store i32 1, ptr %11, align 4
  br label %47

47:                                               ; preds = %44, %29, %23, %16
  call void @llvm.lifetime.end.p0(i64 4, ptr %10) #8
  call void @llvm.lifetime.end.p0(i64 8, ptr %9) #8
  call void @llvm.lifetime.end.p0(i64 8, ptr %8) #8
  %48 = load i32, ptr %4, align 4
  ret i32 %48
}