; Function Attrs: nounwind uwtable
define dso_local range(i32 -1, 1) i32 @rhash_file(i32 noundef %0, ptr noundef readonly captures(none) %1, ptr noundef %2) local_unnamed_addr #0 {
  %4 = alloca [130 x i8], align 16
  %5 = alloca i32, align 4
  %6 = alloca [32 x i32], align 16
  %7 = and i32 %0, 1023
  %8 = icmp eq i32 %7, 0
  br i1 %8, label %9, label %11

9:                                                ; preds = %3
  %10 = tail call ptr @__errno_location() #17
  store i32 22, ptr %10, align 4, !tbaa !4
  br label %76

11:                                               ; preds = %3
  %12 = tail call noalias ptr @fopen64(ptr noundef %1, ptr noundef nonnull @.str)
  %.not = icmp eq ptr %12, null
  br i1 %.not, label %76, label %13

13:                                               ; preds = %11
  call void @llvm.lifetime.start.p0(i64 4, ptr nonnull %5)
  store i32 %7, ptr %5, align 4, !tbaa !4
  %14 = tail call range(i32 1, 11) i32 @llvm.ctpop.i32(i32 %7)
  %15 = icmp samesign ult i32 %14, 2
  br i1 %15, label %16, label %18

16:                                               ; preds = %13
  %17 = call ptr @rhash_init_multi(i64 noundef 1, ptr noundef nonnull %5)
  br label %rhash_init.exit

18:                                               ; preds = %13
  call void @llvm.lifetime.start.p0(i64 128, ptr nonnull %6) #15
  %19 = sub nsw i32 0, %7
  %20 = and i32 %7, %19
  br label %21

21:                                               ; preds = %26, %18
  %.013.i = phi i32 [ %20, %18 ], [ %27, %26 ]
  %.0612.i = phi i64 [ 0, %18 ], [ %.1.i, %26 ]
  %22 = and i32 %.013.i, %7
  %.not11.i = icmp eq i32 %22, 0
  br i1 %.not11.i, label %26, label %23

23:                                               ; preds = %21
  %24 = add i64 %.0612.i, 1
  %25 = getelementptr inbounds nuw [32 x i32], ptr %6, i64 0, i64 %.0612.i
  store i32 %.013.i, ptr %25, align 4, !tbaa !4
  br label %26

26:                                               ; preds = %23, %21
  %.1.i = phi i64 [ %24, %23 ], [ %.0612.i, %21 ]
  %27 = shl i32 %.013.i, 1
  %.not10.i = icmp ugt i32 %27, %7
  br i1 %.not10.i, label %28, label %21, !llvm.loop !25

28:                                               ; preds = %26
  %29 = call ptr @rhash_init_multi(i64 noundef %.1.i, ptr noundef nonnull %6)
  call void @llvm.lifetime.end.p0(i64 128, ptr nonnull %6) #15
  br label %rhash_init.exit

rhash_init.exit:                                  ; preds = %16, %28
  %.07.i = phi ptr [ %17, %16 ], [ %29, %28 ]
  call void @llvm.lifetime.end.p0(i64 4, ptr nonnull %5)
  %.not18 = icmp eq ptr %.07.i, null
  br i1 %.not18, label %30, label %32

30:                                               ; preds = %rhash_init.exit
  %31 = tail call i32 @fclose(ptr noundef nonnull %12)
  br label %76

32:                                               ; preds = %rhash_init.exit
  %33 = tail call i32 @rhash_file_update(ptr noundef nonnull %.07.i, ptr noundef nonnull %12)
  %34 = tail call i32 @fclose(ptr noundef nonnull %12)
  %35 = icmp sgt i32 %33, -1
  br i1 %35, label %36, label %58

36:                                               ; preds = %32
  call void @llvm.lifetime.start.p0(i64 130, ptr nonnull %4) #15
  %37 = getelementptr inbounds nuw i8, ptr %.07.i, i64 20
  %38 = load i32, ptr %37, align 4, !tbaa !4
  %39 = and i32 %38, 3
  %40 = icmp eq i32 %39, 3
  br i1 %40, label %rhash_final.exit, label %41

41:                                               ; preds = %36
  %42 = getelementptr inbounds nuw i8, ptr %.07.i, i64 16
  %43 = load i32, ptr %42, align 8, !tbaa !4
  %.not18.i = icmp eq i32 %43, 0
  br i1 %.not18.i, label %._crit_edge.i, label %.lr.ph.i

.lr.ph.i:                                         ; preds = %41
  %.not.i = icmp eq ptr %2, null
  %44 = select i1 %.not.i, ptr %4, ptr %2
  %45 = getelementptr inbounds nuw i8, ptr %.07.i, i64 56
  br label %46

46:                                               ; preds = %46, %.lr.ph.i
  %indvars.iv.i = phi i64 [ 0, %.lr.ph.i ], [ %indvars.iv.next.i, %46 ]
  %.01516.i = phi ptr [ %44, %.lr.ph.i ], [ %4, %46 ]
  %47 = getelementptr inbounds nuw [0 x %struct.rhash_vector_item], ptr %45, i64 0, i64 %indvars.iv.i
  %48 = load ptr, ptr %47, align 8, !tbaa !20
  %49 = getelementptr inbounds nuw i8, ptr %48, i64 40
  %50 = load ptr, ptr %49, align 8, !tbaa !32
  %51 = getelementptr inbounds nuw i8, ptr %47, i64 8
  %52 = load ptr, ptr %51, align 8, !tbaa !22
  call void %50(ptr noundef %52, ptr noundef %.01516.i) #15
  %indvars.iv.next.i = add nuw nsw i64 %indvars.iv.i, 1
  %53 = load i32, ptr %42, align 8, !tbaa !4
  %54 = zext i32 %53 to i64
  %55 = icmp samesign ult i64 %indvars.iv.next.i, %54
  br i1 %55, label %46, label %._crit_edge.loopexit.i, !llvm.loop !33

._crit_edge.loopexit.i:                           ; preds = %46
  %.pre.i = load i32, ptr %37, align 4, !tbaa !4
  br label %._crit_edge.i

._crit_edge.i:                                    ; preds = %._crit_edge.loopexit.i, %41
  %56 = phi i32 [ %.pre.i, %._crit_edge.loopexit.i ], [ %38, %41 ]
  %57 = or i32 %56, 2
  store i32 %57, ptr %37, align 4, !tbaa !4
  br label %rhash_final.exit

rhash_final.exit:                                 ; preds = %36, %._crit_edge.i
  call void @llvm.lifetime.end.p0(i64 130, ptr nonnull %4) #15
  br label %58

58:                                               ; preds = %32, %rhash_final.exit
  %59 = getelementptr inbounds nuw i8, ptr %.07.i, i64 24
  store volatile i32 -556882451, ptr %59, align 8, !tbaa !4
  %60 = getelementptr inbounds nuw i8, ptr %.07.i, i64 16
  %61 = load i32, ptr %60, align 8, !tbaa !4
  %.not15.i = icmp eq i32 %61, 0
  br i1 %.not15.i, label %rhash_free.exit, label %.lr.ph.i19

.lr.ph.i19:                                       ; preds = %58
  %62 = getelementptr inbounds nuw i8, ptr %.07.i, i64 56
  br label %63

63:                                               ; preds = %72, %.lr.ph.i19
  %64 = phi i32 [ %61, %.lr.ph.i19 ], [ %73, %72 ]
  %indvars.iv.i20 = phi i64 [ 0, %.lr.ph.i19 ], [ %indvars.iv.next.i23, %72 ]
  %65 = getelementptr inbounds nuw [0 x %struct.rhash_vector_item], ptr %62, i64 0, i64 %indvars.iv.i20
  %66 = load ptr, ptr %65, align 8, !tbaa !20
  %67 = getelementptr inbounds nuw i8, ptr %66, i64 48
  %68 = load ptr, ptr %67, align 8, !tbaa !26
  %.not.i21 = icmp eq ptr %68, null
  br i1 %.not.i21, label %72, label %69

69:                                               ; preds = %63
  %70 = getelementptr inbounds nuw i8, ptr %65, i64 8
  %71 = load ptr, ptr %70, align 8, !tbaa !22
  call void %68(ptr noundef %71) #15
  %.pre.i22 = load i32, ptr %60, align 8, !tbaa !4
  br label %72

72:                                               ; preds = %69, %63
  %73 = phi i32 [ %.pre.i22, %69 ], [ %64, %63 ]
  %indvars.iv.next.i23 = add nuw nsw i64 %indvars.iv.i20, 1
  %74 = zext i32 %73 to i64
  %75 = icmp samesign ult i64 %indvars.iv.next.i23, %74
  br i1 %75, label %63, label %rhash_free.exit, !llvm.loop !27

rhash_free.exit:                                  ; preds = %72, %58
  call void @free(ptr noundef nonnull %.07.i) #15
  br label %76

76:                                               ; preds = %11, %rhash_free.exit, %30, %9
  %.0 = phi i32 [ -1, %9 ], [ %33, %rhash_free.exit ], [ -1, %30 ], [ -1, %11 ]
  ret i32 %.0
}